; ModuleID = '51/917.c'
source_filename = "51/917.c"
target datalayout = "e-m:e-p270:32:32-p271:32:32-p272:64:64-i64:64-f80:128-n8:16:32:64-S128"
target triple = "x86_64-pc-linux-gnu"

@.str = private unnamed_addr constant [3 x i8] c"%d\00", align 1
@.str.1 = private unnamed_addr constant [3 x i8] c"NO\00", align 1
@.str.2 = private unnamed_addr constant [4 x i8] c"%d\0A\00", align 1
@.str.3 = private unnamed_addr constant [4 x i8] c"%s\0A\00", align 1

; Function Attrs: noinline nounwind uwtable
define dso_local i32 @main() #0 {
  %1 = alloca i32, align 4
  %2 = alloca [550 x i8], align 16
  %3 = alloca [6 x i8], align 1
  %4 = alloca i32, align 4
  %5 = alloca i32, align 4
  %6 = alloca i32, align 4
  %7 = alloca i32, align 4
  %8 = alloca i32, align 4
  %9 = alloca [550 x i32], align 16
  store i32 0, i32* %1, align 4
  %10 = bitcast [550 x i32]* %9 to i8*
  call void @llvm.memset.p0i8.i64(i8* align 16 %10, i8 0, i64 2200, i1 false)
  %11 = call i32 (i8*, ...) @__isoc99_scanf(i8* getelementptr inbounds ([3 x i8], [3 x i8]* @.str, i64 0, i64 0), i32* %8)
  %12 = call i32 @getchar()
  %13 = getelementptr inbounds [550 x i8], [550 x i8]* %2, i64 0, i64 0
  %14 = call i32 (i8*, ...) bitcast (i32 (...)* @gets to i32 (i8*, ...)*)(i8* %13)
  store i32 0, i32* %4, align 4
  br label %15

15:                                               ; preds = %73, %0
  %16 = load i32, i32* %4, align 4
  %17 = sext i32 %16 to i64
  %18 = getelementptr inbounds [550 x i8], [550 x i8]* %2, i64 0, i64 %17
  %19 = load i8, i8* %18, align 1
  %20 = sext i8 %19 to i32
  %21 = icmp ne i32 %20, 0
  br i1 %21, label %22, label %76

22:                                               ; preds = %15
  %23 = load i32, i32* %4, align 4
  %24 = add nsw i32 %23, 1
  store i32 %24, i32* %5, align 4
  br label %25

25:                                               ; preds = %69, %22
  %26 = load i32, i32* %5, align 4
  %27 = sext i32 %26 to i64
  %28 = getelementptr inbounds [550 x i8], [550 x i8]* %2, i64 0, i64 %27
  %29 = load i8, i8* %28, align 1
  %30 = sext i8 %29 to i32
  %31 = icmp ne i32 %30, 0
  br i1 %31, label %32, label %72

32:                                               ; preds = %25
  store i32 0, i32* %7, align 4
  store i32 0, i32* %6, align 4
  br label %33

33:                                               ; preds = %56, %32
  %34 = load i32, i32* %6, align 4
  %35 = load i32, i32* %8, align 4
  %36 = sub nsw i32 %35, 1
  %37 = icmp sle i32 %34, %36
  br i1 %37, label %38, label %59

38:                                               ; preds = %33
  %39 = load i32, i32* %4, align 4
  %40 = load i32, i32* %6, align 4
  %41 = add nsw i32 %39, %40
  %42 = sext i32 %41 to i64
  %43 = getelementptr inbounds [550 x i8], [550 x i8]* %2, i64 0, i64 %42
  %44 = load i8, i8* %43, align 1
  %45 = sext i8 %44 to i32
  %46 = load i32, i32* %5, align 4
  %47 = load i32, i32* %6, align 4
  %48 = add nsw i32 %46, %47
  %49 = sext i32 %48 to i64
  %50 = getelementptr inbounds [550 x i8], [550 x i8]* %2, i64 0, i64 %49
  %51 = load i8, i8* %50, align 1
  %52 = sext i8 %51 to i32
  %53 = icmp ne i32 %45, %52
  br i1 %53, label %54, label %55

54:                                               ; preds = %38
  store i32 1, i32* %7, align 4
  br label %55

55:                                               ; preds = %54, %38
  br label %56

56:                                               ; preds = %55
  %57 = load i32, i32* %6, align 4
  %58 = add nsw i32 %57, 1
  store i32 %58, i32* %6, align 4
  br label %33

59:                                               ; preds = %33
  %60 = load i32, i32* %7, align 4
  %61 = icmp eq i32 %60, 0
  br i1 %61, label %62, label %68

62:                                               ; preds = %59
  %63 = load i32, i32* %4, align 4
  %64 = sext i32 %63 to i64
  %65 = getelementptr inbounds [550 x i32], [550 x i32]* %9, i64 0, i64 %64
  %66 = load i32, i32* %65, align 4
  %67 = add nsw i32 %66, 1
  store i32 %67, i32* %65, align 4
  br label %68

68:                                               ; preds = %62, %59
  br label %69

69:                                               ; preds = %68
  %70 = load i32, i32* %5, align 4
  %71 = add nsw i32 %70, 1
  store i32 %71, i32* %5, align 4
  br label %25

72:                                               ; preds = %25
  br label %73

73:                                               ; preds = %72
  %74 = load i32, i32* %4, align 4
  %75 = add nsw i32 %74, 1
  store i32 %75, i32* %4, align 4
  br label %15

76:                                               ; preds = %15
  store i32 0, i32* %4, align 4
  br label %77

77:                                               ; preds = %112, %76
  %78 = load i32, i32* %4, align 4
  %79 = sext i32 %78 to i64
  %80 = getelementptr inbounds [550 x i8], [550 x i8]* %2, i64 0, i64 %79
  %81 = load i8, i8* %80, align 1
  %82 = sext i8 %81 to i32
  %83 = icmp ne i32 %82, 0
  br i1 %83, label %84, label %115

84:                                               ; preds = %77
  store i32 0, i32* %7, align 4
  store i32 0, i32* %5, align 4
  br label %85

85:                                               ; preds = %104, %84
  %86 = load i32, i32* %5, align 4
  %87 = sext i32 %86 to i64
  %88 = getelementptr inbounds [550 x i8], [550 x i8]* %2, i64 0, i64 %87
  %89 = load i8, i8* %88, align 1
  %90 = sext i8 %89 to i32
  %91 = icmp ne i32 %90, 0
  br i1 %91, label %92, label %107

92:                                               ; preds = %85
  %93 = load i32, i32* %4, align 4
  %94 = sext i32 %93 to i64
  %95 = getelementptr inbounds [550 x i32], [550 x i32]* %9, i64 0, i64 %94
  %96 = load i32, i32* %95, align 4
  %97 = load i32, i32* %5, align 4
  %98 = sext i32 %97 to i64
  %99 = getelementptr inbounds [550 x i32], [550 x i32]* %9, i64 0, i64 %98
  %100 = load i32, i32* %99, align 4
  %101 = icmp slt i32 %96, %100
  br i1 %101, label %102, label %103

102:                                              ; preds = %92
  store i32 1, i32* %7, align 4
  br label %103

103:                                              ; preds = %102, %92
  br label %104

104:                                              ; preds = %103
  %105 = load i32, i32* %5, align 4
  %106 = add nsw i32 %105, 1
  store i32 %106, i32* %5, align 4
  br label %85

107:                                              ; preds = %85
  %108 = load i32, i32* %7, align 4
  %109 = icmp eq i32 %108, 0
  br i1 %109, label %110, label %111

110:                                              ; preds = %107
  br label %115

111:                                              ; preds = %107
  br label %112

112:                                              ; preds = %111
  %113 = load i32, i32* %4, align 4
  %114 = add nsw i32 %113, 1
  store i32 %114, i32* %4, align 4
  br label %77

115:                                              ; preds = %110, %77
  %116 = load i32, i32* %4, align 4
  %117 = sext i32 %116 to i64
  %118 = getelementptr inbounds [550 x i32], [550 x i32]* %9, i64 0, i64 %117
  %119 = load i32, i32* %118, align 4
  %120 = icmp eq i32 %119, 0
  br i1 %120, label %121, label %123

121:                                              ; preds = %115
  %122 = call i32 (i8*, ...) @printf(i8* getelementptr inbounds ([3 x i8], [3 x i8]* @.str.1, i64 0, i64 0))
  store i32 0, i32* %1, align 4
  br label %178

123:                                              ; preds = %115
  %124 = load i32, i32* %4, align 4
  %125 = sext i32 %124 to i64
  %126 = getelementptr inbounds [550 x i32], [550 x i32]* %9, i64 0, i64 %125
  %127 = load i32, i32* %126, align 4
  %128 = add nsw i32 %127, 1
  %129 = call i32 (i8*, ...) @printf(i8* getelementptr inbounds ([4 x i8], [4 x i8]* @.str.2, i64 0, i64 0), i32 %128)
  %130 = load i32, i32* %4, align 4
  %131 = sext i32 %130 to i64
  %132 = getelementptr inbounds [550 x i32], [550 x i32]* %9, i64 0, i64 %131
  %133 = load i32, i32* %132, align 4
  store i32 %133, i32* %6, align 4
  store i32 0, i32* %4, align 4
  br label %134

134:                                              ; preds = %174, %123
  %135 = load i32, i32* %4, align 4
  %136 = sext i32 %135 to i64
  %137 = getelementptr inbounds [550 x i8], [550 x i8]* %2, i64 0, i64 %136
  %138 = load i8, i8* %137, align 1
  %139 = sext i8 %138 to i32
  %140 = icmp ne i32 %139, 0
  br i1 %140, label %141, label %177

141:                                              ; preds = %134
  %142 = load i32, i32* %4, align 4
  %143 = sext i32 %142 to i64
  %144 = getelementptr inbounds [550 x i32], [550 x i32]* %9, i64 0, i64 %143
  %145 = load i32, i32* %144, align 4
  %146 = load i32, i32* %6, align 4
  %147 = icmp eq i32 %145, %146
  br i1 %147, label %148, label %173

148:                                              ; preds = %141
  store i32 0, i32* %5, align 4
  br label %149

149:                                              ; preds = %164, %148
  %150 = load i32, i32* %5, align 4
  %151 = load i32, i32* %8, align 4
  %152 = sub nsw i32 %151, 1
  %153 = icmp sle i32 %150, %152
  br i1 %153, label %154, label %167

154:                                              ; preds = %149
  %155 = load i32, i32* %4, align 4
  %156 = load i32, i32* %5, align 4
  %157 = add nsw i32 %155, %156
  %158 = sext i32 %157 to i64
  %159 = getelementptr inbounds [550 x i8], [550 x i8]* %2, i64 0, i64 %158
  %160 = load i8, i8* %159, align 1
  %161 = load i32, i32* %5, align 4
  %162 = sext i32 %161 to i64
  %163 = getelementptr inbounds [6 x i8], [6 x i8]* %3, i64 0, i64 %162
  store i8 %160, i8* %163, align 1
  br label %164

164:                                              ; preds = %154
  %165 = load i32, i32* %5, align 4
  %166 = add nsw i32 %165, 1
  store i32 %166, i32* %5, align 4
  br label %149

167:                                              ; preds = %149
  %168 = load i32, i32* %5, align 4
  %169 = sext i32 %168 to i64
  %170 = getelementptr inbounds [6 x i8], [6 x i8]* %3, i64 0, i64 %169
  store i8 0, i8* %170, align 1
  %171 = getelementptr inbounds [6 x i8], [6 x i8]* %3, i64 0, i64 0
  %172 = call i32 (i8*, ...) @printf(i8* getelementptr inbounds ([4 x i8], [4 x i8]* @.str.3, i64 0, i64 0), i8* %171)
  br label %173

173:                                              ; preds = %167, %141
  br label %174

174:                                              ; preds = %173
  %175 = load i32, i32* %4, align 4
  %176 = add nsw i32 %175, 1
  store i32 %176, i32* %4, align 4
  br label %134

177:                                              ; preds = %134
  store i32 0, i32* %1, align 4
  br label %178

178:                                              ; preds = %177, %121
  %179 = load i32, i32* %1, align 4
  ret i32 %179
}

; Function Attrs: argmemonly nounwind willreturn
declare void @llvm.memset.p0i8.i64(i8* nocapture writeonly, i8, i64, i1 immarg) #1

declare dso_local i32 @__isoc99_scanf(i8*, ...) #2

declare dso_local i32 @getchar() #2

declare dso_local i32 @gets(...) #2

declare dso_local i32 @printf(i8*, ...) #2


!llvm.module.flags = !{!0}
!llvm.ident = !{!1}

!0 = !{i32 1, !"wchar_size", i32 4}
!1 = !{!"clang version 10.0.0-4ubuntu1 "}
